(ilevelformat
LevelFormat
p1
(dp2
S'buttons'
p3
(lp4
(ilevelformat
Button
p5
(dp6
S'color'
p7
(I255
I0
I255
tp8
sS'rect'
p9
cpygame
__rect_constructor
p10
(I206
I3
I70
I70
tRp11
sS'sets'
p12
Nsba(ilevelformat
Button
p13
(dp14
S'color'
p15
(I255
I0
I255
tp16
sS'rect'
p17
g10
(I414
I338
I70
I70
tRp18
sS'sets'
p19
NsbasS'player'
p20
(ilevelformat
Player
p21
(dp22
g7
(I0
I0
I255
tp23
sg9
g10
(I192
I429
I30
I30
tRp24
sbsS'exit'
p25
(ilevelformat
Exit
p26
(dp27
g7
(I255
I0
I0
tp28
sg9
g10
(I860
I42
I100
I100
tRp29
sbsS'recorders'
p30
(lp31
sS'platforms'
p32
(lp33
(ilevelformat
Platform
p34
(dp35
g7
(I0
I0
I0
tp36
sS'setBy'
p37
NsS'visibleDefault'
p38
I01
sg9
g10
(I146
I459
I110
I35
tRp39
sba(ilevelformat
Platform
p40
(dp41
g7
g36
sg37
Nsg38
I01
sg9
g10
(I375
I408
I144
I32
tRp42
sba(ilevelformat
Platform
p43
(dp44
g7
g36
sg37
Nsg38
I01
sg9
g10
(I590
I279
I128
I33
tRp45
sba(ilevelformat
Platform
p46
(dp47
g7
g36
sg37
Nsg38
I01
sg9
g10
(I501
I81
I132
I32
tRp48
sba(ilevelformat
Platform
p49
(dp50
g7
g36
sg37
Nsg38
I01
sg9
g10
(I370
I204
I137
I32
tRp51
sba(ilevelformat
Platform
p52
(dp53
g7
g36
sg37
Nsg38
I01
sg9
g10
(I817
I376
I55
I31
tRp54
sba(ilevelformat
Platform
p55
(dp56
g7
g36
sg37
Nsg38
I01
sg9
g10
(I821
I146
I162
I31
tRp57
sba(ilevelformat
Platform
p58
(dp59
g7
g36
sg37
Nsg38
I01
sg9
g10
(I179
I73
I116
I41
tRp60
sbasb.