(ilevelformat
LevelFormat
p0
(dp1
S'buttons'
p2
(lp3
(ilevelformat
Button
p4
(dp5
S'color'
p6
(I255
I0
I255
tp7
sS'rect'
p8
cpygame
__rect_constructor
p9
(I206
I3
I70
I70
tp10
Rp11
sS'sets'
p12
Nsba(ilevelformat
Button
p13
(dp14
g6
(I255
I0
I255
tp15
sg8
g9
(I414
I338
I70
I70
tp16
Rp17
sg12
NsbasS'player'
p18
(ilevelformat
Player
p19
(dp20
g6
(I0
I0
I255
tp21
sg8
g9
(I192
I429
I30
I30
tp22
Rp23
sbsS'exit'
p24
(ilevelformat
Exit
p25
(dp26
g6
(I255
I0
I0
tp27
sg8
g9
(I860
I42
I100
I100
tp28
Rp29
sbsS'recorders'
p30
(lp31
sS'platforms'
p32
(lp33
(ilevelformat
Platform
p34
(dp35
g6
(I0
I0
I0
tp36
sS'setBy'
p37
NsS'visibleDefault'
p38
I01
sg8
g9
(I146
I459
I110
I35
tp39
Rp40
sba(ilevelformat
Platform
p41
(dp42
g6
g36
sg37
Nsg38
I01
sg8
g9
(I375
I408
I144
I32
tp43
Rp44
sba(ilevelformat
Platform
p45
(dp46
g6
g36
sg37
Nsg38
I01
sg8
g9
(I590
I279
I128
I33
tp47
Rp48
sba(ilevelformat
Platform
p49
(dp50
g6
g36
sg37
Nsg38
I01
sg8
g9
(I501
I81
I132
I32
tp51
Rp52
sba(ilevelformat
Platform
p53
(dp54
g6
g36
sg37
Nsg38
I01
sg8
g9
(I370
I204
I137
I32
tp55
Rp56
sba(ilevelformat
Platform
p57
(dp58
g6
g36
sg37
Nsg38
I01
sg8
g9
(I817
I376
I55
I31
tp59
Rp60
sba(ilevelformat
Platform
p61
(dp62
g6
g36
sg37
Nsg38
I01
sg8
g9
(I821
I146
I162
I31
tp63
Rp64
sba(ilevelformat
Platform
p65
(dp66
g6
g36
sg37
Nsg38
I01
sg8
g9
(I179
I73
I116
I41
tp67
Rp68
sbasb.